target datalayout = "e-m:e-p270:32:32-p271:32:32-p272:64:64-i64:64-i128:128-f80:128-n8:16:32:64-S128"
target triple = "x86_64-pc-linux-gnu"

; Function Attrs: mustprogress nounwind uwtable
define noundef i64 @_Z14reg_from_bytesmPKh(i64 noundef %0, ptr noundef %1) #5 {
  %3 = alloca i64, align 8
  %4 = alloca i64, align 8
  %5 = alloca ptr, align 8
  store i64 %0, ptr %4, align 8, !tbaa !57
  store ptr %1, ptr %5, align 8, !tbaa !208
  %6 = load i64, ptr %4, align 8, !tbaa !57
  switch i64 %6, label %93 [
    i64 1, label %7
    i64 2, label %12
    i64 4, label %23
    i64 8, label %46
  ]

7:                                                ; preds = %2
  %8 = load ptr, ptr %5, align 8, !tbaa !208
  %9 = getelementptr inbounds i8, ptr %8, i64 0
  %10 = load i8, ptr %9, align 1, !tbaa !83
  %11 = zext i8 %10 to i64
  store i64 %11, ptr %3, align 8
  br label %94

12:                                               ; preds = %2
  %13 = load ptr, ptr %5, align 8, !tbaa !208
  %14 = getelementptr inbounds i8, ptr %13, i64 0
  %15 = load i8, ptr %14, align 1, !tbaa !83
  %16 = zext i8 %15 to i64
  %17 = load ptr, ptr %5, align 8, !tbaa !208
  %18 = getelementptr inbounds i8, ptr %17, i64 1
  %19 = load i8, ptr %18, align 1, !tbaa !83
  %20 = zext i8 %19 to i64
  %21 = shl i64 %20, 8
  %22 = or i64 %16, %21
  store i64 %22, ptr %3, align 8
  br label %94

23:                                               ; preds = %2
  %24 = load ptr, ptr %5, align 8, !tbaa !208
  %25 = getelementptr inbounds i8, ptr %24, i64 0
  %26 = load i8, ptr %25, align 1, !tbaa !83
  %27 = zext i8 %26 to i64
  %28 = load ptr, ptr %5, align 8, !tbaa !208
  %29 = getelementptr inbounds i8, ptr %28, i64 1
  %30 = load i8, ptr %29, align 1, !tbaa !83
  %31 = zext i8 %30 to i64
  %32 = shl i64 %31, 8
  %33 = or i64 %27, %32
  %34 = load ptr, ptr %5, align 8, !tbaa !208
  %35 = getelementptr inbounds i8, ptr %34, i64 2
  %36 = load i8, ptr %35, align 1, !tbaa !83
  %37 = zext i8 %36 to i64
  %38 = shl i64 %37, 16
  %39 = or i64 %33, %38
  %40 = load ptr, ptr %5, align 8, !tbaa !208
  %41 = getelementptr inbounds i8, ptr %40, i64 3
  %42 = load i8, ptr %41, align 1, !tbaa !83
  %43 = zext i8 %42 to i64
  %44 = shl i64 %43, 24
  %45 = or i64 %39, %44
  store i64 %45, ptr %3, align 8
  br label %94

46:                                               ; preds = %2
  %47 = load ptr, ptr %5, align 8, !tbaa !208
  %48 = getelementptr inbounds i8, ptr %47, i64 0
  %49 = load i8, ptr %48, align 1, !tbaa !83
  %50 = zext i8 %49 to i64
  %51 = load ptr, ptr %5, align 8, !tbaa !208
  %52 = getelementptr inbounds i8, ptr %51, i64 1
  %53 = load i8, ptr %52, align 1, !tbaa !83
  %54 = zext i8 %53 to i64
  %55 = shl i64 %54, 8
  %56 = or i64 %50, %55
  %57 = load ptr, ptr %5, align 8, !tbaa !208
  %58 = getelementptr inbounds i8, ptr %57, i64 2
  %59 = load i8, ptr %58, align 1, !tbaa !83
  %60 = zext i8 %59 to i64
  %61 = shl i64 %60, 16
  %62 = or i64 %56, %61
  %63 = load ptr, ptr %5, align 8, !tbaa !208
  %64 = getelementptr inbounds i8, ptr %63, i64 3
  %65 = load i8, ptr %64, align 1, !tbaa !83
  %66 = zext i8 %65 to i64
  %67 = shl i64 %66, 24
  %68 = or i64 %62, %67
  %69 = load ptr, ptr %5, align 8, !tbaa !208
  %70 = getelementptr inbounds i8, ptr %69, i64 4
  %71 = load i8, ptr %70, align 1, !tbaa !83
  %72 = zext i8 %71 to i64
  %73 = shl i64 %72, 32
  %74 = or i64 %68, %73
  %75 = load ptr, ptr %5, align 8, !tbaa !208
  %76 = getelementptr inbounds i8, ptr %75, i64 5
  %77 = load i8, ptr %76, align 1, !tbaa !83
  %78 = zext i8 %77 to i64
  %79 = shl i64 %78, 40
  %80 = or i64 %74, %79
  %81 = load ptr, ptr %5, align 8, !tbaa !208
  %82 = getelementptr inbounds i8, ptr %81, i64 6
  %83 = load i8, ptr %82, align 1, !tbaa !83
  %84 = zext i8 %83 to i64
  %85 = shl i64 %84, 48
  %86 = or i64 %80, %85
  %87 = load ptr, ptr %5, align 8, !tbaa !208
  %88 = getelementptr inbounds i8, ptr %87, i64 7
  %89 = load i8, ptr %88, align 1, !tbaa !83
  %90 = zext i8 %89 to i64
  %91 = shl i64 %90, 56
  %92 = or i64 %86, %91
  store i64 %92, ptr %3, align 8
  br label %94

93:                                               ; preds = %2
  call void @abort() #20
  unreachable

94:                                               ; preds = %46, %23, %12, %7
  %95 = load i64, ptr %3, align 8
  ret i64 %95
}