; Function Attrs: mustprogress nofree nounwind uwtable
define noundef i64 @_Z14reg_from_bytesmPKh(i64 noundef %0, ptr noundef readonly captures(none) %1) local_unnamed_addr #13 {
  switch i64 %0, label %14 [
    i64 1, label %3
    i64 2, label %6
    i64 4, label %9
    i64 8, label %12
  ]

3:                                                ; preds = %2
  %4 = load i8, ptr %1, align 1, !tbaa !209
  %5 = zext i8 %4 to i64
  br label %15

6:                                                ; preds = %2
  %7 = load i16, ptr %1, align 1
  %8 = zext i16 %7 to i64
  br label %15

9:                                                ; preds = %2
  %10 = load i32, ptr %1, align 1
  %11 = zext i32 %10 to i64
  br label %15

12:                                               ; preds = %2
  %13 = load i64, ptr %1, align 1
  br label %15

14:                                               ; preds = %2
  tail call void @abort() #26
  unreachable

15:                                               ; preds = %12, %9, %6, %3
  %.0 = phi i64 [ %13, %12 ], [ %11, %9 ], [ %8, %6 ], [ %5, %3 ]
  ret i64 %.0
}